-----BEGIN PRIVATE KEY-----
MIIG/gIBADANBgkqhkiG9w0BAQEFAASCBugwggbkAgEAAoIBgQC/dmDyZ3nNVg3H
m7W0+T0KhagrlUSvDo5e2LpfEggbPY11Tf9bfTydEqUnQsaJRC32du+WrfEHVbxv
AW5YPKf9OHCF/qPVByqY5SDoalArgTYKH82Z3yEsLXtizlhek6gy9Bpdu9GuGTws
1n92+x/NbvpwdwBTUO0NTzzkc0KrmKUQl4Viyx+8dCYex6b0n5MDeu/1Yy1eptmt
u5bwO9US44Xxzjn41AjSj/NzD+25wC4pOOlvCufMVNNRog7tvSIO9aE2TeVP3/7R
/DRjktdO+8SWbpfs/Z20XVnBAuPEluLqUMKKewHhrkMknAJJbH3OM/G+3vGbqcah
rhfU3DbtHlDFnEX/YAKbniy9edaINp9B7fbxHX49cjrosFxP6y/pZXUytVCOeswt
34CkuC9of5Y4dehE096MY8BT81B6BO/N1IJhH47Ora8GjlVUduzsYXC+u5IIdUEV
Obod3BweEzn+Y41t8k88tyWUrjMlLPThcP/ktRRam+XaYJu1C1sCAwEAAQKCAYBg
MPtYDgC11wwpQuOxvp6aULhC3UWapbeFk2FfLlIATZZqXvtyXaM8TwfGh9fzUtu8
vdh1XYKA6uQ26QMlNaQ4pkhyKZLqDiWql0NHQVJx6QLbZ0sGiYHDDj61T3I6YfjZ
UKaGfTxFOcxvwnxbrKM3tRABvOfe9AOE8lBnfjj6uUAE6/tJvT9+kOQuBqSsthdI
YlV4dZFvwmgOzvZwT78nNEQxTij2CKE+GLB5GIGZFyKZ90vgTBxVHjDlDIRvkNtS
RtOStIVcTg+9lT1PdwIBYVgQAwtarveFVrG4tTTD1kHHaQ9XByyZ6KPGz6Bh3bET
vgiUbMd8X3ec4W1lI89UBwOYEnh6xh/L5rwVb4kUexHiCtehID7VC4s1g6rbb1uv
jK2JrGdV0IDu+ido/pt/fBGXoqrSfK44wF+Mj3ihAgbTomlIg/2jjBDrSalgM5Ka
Vd3RBESEfdhLz7Peh1oXZbT28ogMA4+CLXfnGxNRRyLgQ/RZffJlJM5NpJvQjgEC
gcEA8k+8ZERp81+mRTsvYhIM2Rn6dpxRGlI//CXkvDWh1BjVeDp/rRuVHkcop0xq
OTA8An+0MuRL8T4dWd2dXYrOUsUN3MLUOUtketA1M6JzItnTyjgDLDgG8Ob1mUSH
psSC/7SOswj19+tRyE6l0HY3ZEFkZqgt47OgQ55jZijLUrWgX2Rm8MVzs/okKQMJ
ji71qjEcrghm9vpCfFOKUoHz+gCIC8weuhSkGNmXnwQwzuBSP+/OdZSUqUWacYdi
BIaBAoHBAMpHReseVX2YpnVMA6XFYtkAvQlD59R4gBkrWdeLRHNOiN5m4djz2koK
bYPsn9el9W8YVVmuBG8i7xT1LJ5G6KCkzmp5T1YZosr+00JIesR7FVpI0yE/t/og
QOa/SOd1VZOuV3uBnVO+RyHiOZz2MJI/xbfVRCi+1Ru7xCx7GNAVquow36hKggyN
mMWrmpFLeVHUFaACGpBVrxO+jVtl6GVCogzn9VCc9/WQwJoBMd7rFrtjlMGiD/0K
ciQkNjZ72wKBwQCRygW4ci0pIAiDKPv2TpPqX6YBjUWCx6/1vrrjvoUSfqqZfuDo
v2q13+yG1AQpSmsgucMqx48lo9C3DA6thGFlDWisxZA4tLLM7c7EtV3+vv6dcZv/
E+qhMOTeBYx0e1GyFemxsJeFRdFb6m37gdUL/ggxd8i8covfg0Gc6riCmALYwijp
fnOB+uOcxVYPdROcBZaS4z1IJgSwlvbnc4beiUlRh8uI+/hLd0exhizzm6YBEACx
X+cd/WHSIrmHrYECgcAfCzU10l/4eJcDZXkh1dtHxo88fslzmFLAiiCtrdgBgkoL
J+r9at9TgaoxFv2pEPVL6YYfz08q50eeBcqlN+i3ztNHD/sXEbQkR1uQzqLYyLMM
OiT881R+9LhBMZY0v5M0qQsQD2Jf2dH850VES5xEtbjYb8iYIEGAkh6XXQT/2nNy
obGRmG3BE3Ig1CdSqSyjXFM9TVVaVWwbMaFsJ4W1FLbeGDNT/eMoMuD8QbavqZDB
jZTk6sRdZ18BIPWZAwUCgcEAyW6NzgyR0ayoxoOQ860tqilq2kUEb2wYHnzPMo9V
agqNYGd7tGtW8RNxPmC38ezosgQqAXekTu88dZwCFvjWbQIyEA0yQQGmfsEGFKpB
+HyAOE1nKJ2n/Lv+4mwOo08JXXLyUfJaQVKNR128slwie3GHEdJzscABUzZ1bz6f
SkD1J3hRpXIZXPpd6QugbkIRhbQzKnmgtbJrrY5jmzqlS9iZbRbI2zU98iAmAA3Y
d97XFAcl1DfrtnFj6cLEyxLr
-----END PRIVATE KEY-----
Certificate:
    Data:
        Version: 3 (0x2)
        Serial Number:
            76:c4:32:f6:d2:ab:1d:ee:77:2d:c7:0e:93:de:67:46:4e:32:07:c9
        Signature Algorithm: sha256WithRSAEncryption
        Issuer: C=XY, O=Python Software Foundation CA, CN=our-ca-server
        Validity
            Not Before: Jul 28 16:03:56 2020 GMT
            Not After : Jun  6 16:03:56 2030 GMT
        Subject: C=XY, L=Castle Anthrax, O=Python Software Foundation, CN=idnsans
        Subject Public Key Info:
            Public Key Algorithm: rsaEncryption
                RSA Public-Key: (3072 bit)
                Modulus:
                    00:bf:76:60:f2:67:79:cd:56:0d:c7:9b:b5:b4:f9:
                    3d:0a:85:a8:2b:95:44:af:0e:8e:5e:d8:ba:5f:12:
                    08:1b:3d:8d:75:4d:ff:5b:7d:3c:9d:12:a5:27:42:
                    c6:89:44:2d:f6:76:ef:96:ad:f1:07:55:bc:6f:01:
                    6e:58:3c:a7:fd:38:70:85:fe:a3:d5:07:2a:98:e5:
                    20:e8:6a:50:2b:81:36:0a:1f:cd:99:df:21:2c:2d:
                    7b:62:ce:58:5e:93:a8:32:f4:1a:5d:bb:d1:ae:19:
                    3c:2c:d6:7f:76:fb:1f:cd:6e:fa:70:77:00:53:50:
                    ed:0d:4f:3c:e4:73:42:ab:98:a5:10:97:85:62:cb:
                    1f:bc:74:26:1e:c7:a6:f4:9f:93:03:7a:ef:f5:63:
                    2d:5e:a6:d9:ad:bb:96:f0:3b:d5:12:e3:85:f1:ce:
                    39:f8:d4:08:d2:8f:f3:73:0f:ed:b9:c0:2e:29:38:
                    e9:6f:0a:e7:cc:54:d3:51:a2:0e:ed:bd:22:0e:f5:
                    a1:36:4d:e5:4f:df:fe:d1:fc:34:63:92:d7:4e:fb:
                    c4:96:6e:97:ec:fd:9d:b4:5d:59:c1:02:e3:c4:96:
                    e2:ea:50:c2:8a:7b:01:e1:ae:43:24:9c:02:49:6c:
                    7d:ce:33:f1:be:de:f1:9b:a9:c6:a1:ae:17:d4:dc:
                    36:ed:1e:50:c5:9c:45:ff:60:02:9b:9e:2c:bd:79:
                    d6:88:36:9f:41:ed:f6:f1:1d:7e:3d:72:3a:e8:b0:
                    5c:4f:eb:2f:e9:65:75:32:b5:50:8e:7a:cc:2d:df:
                    80:a4:b8:2f:68:7f:96:38:75:e8:44:d3:de:8c:63:
                    c0:53:f3:50:7a:04:ef:cd:d4:82:61:1f:8e:ce:ad:
                    af:06:8e:55:54:76:ec:ec:61:70:be:bb:92:08:75:
                    41:15:39:ba:1d:dc:1c:1e:13:39:fe:63:8d:6d:f2:
                    4f:3c:b7:25:94:ae:33:25:2c:f4:e1:70:ff:e4:b5:
                    14:5a:9b:e5:da:60:9b:b5:0b:5b
                Exponent: 65537 (0x10001)
        X509v3 extensions:
            X509v3 Subject Alternative Name: 
                DNS:idnsans, DNS:xn--knig-5qa.idn.pythontest.net, DNS:xn--knigsgsschen-lcb0w.idna2003.pythontest.net, DNS:xn--knigsgchen-b4a3dun.idna2008.pythontest.net, DNS:xn--nxasmq6b.idna2003.pythontest.net, DNS:xn--nxasmm1c.idna2008.pythontest.net
            X509v3 Key Usage: critical
                Digital Signature, Key Encipherment
            X509v3 Extended Key Usage: 
                TLS Web Server Authentication, TLS Web Client Authentication
            X509v3 Basic Constraints: critical
                CA:FALSE
            X509v3 Subject Key Identifier: 
                2F:2D:0B:F8:B7:DE:8E:1F:14:4C:27:93:CB:7D:8A:7F:BC:F2:D5:7A
            X509v3 Authority Key Identifier: 
                keyid:5E:57:A2:AF:07:53:35:F6:A1:5D:33:E3:D4:86:C6:0B:8F:37:95:54
                DirName:/C=XY/O=Python Software Foundation CA/CN=our-ca-server
                serial:76:C4:32:F6:D2:AB:1D:EE:77:2D:C7:0E:93:DE:67:46:4E:32:07:C5

            Authority Information Access: 
                CA Issuers - URI:http://testca.pythontest.net/testca/pycacert.cer
                OCSP - URI:http://testca.pythontest.net/testca/ocsp/

            X509v3 CRL Distribution Points: 

                Full Name:
                  URI:http://testca.pythontest.net/testca/revocation.crl

    Signature Algorithm: sha256WithRSAEncryption
         50:c2:33:0d:9d:c9:87:ea:74:1f:10:b3:b2:c9:53:bb:ea:e1:
         3b:c9:75:d3:37:0a:4e:04:d3:12:b0:44:1a:7e:92:4e:56:3b:
         87:be:f3:ec:05:0e:76:51:e3:b8:7e:37:4b:9f:ba:3b:03:62:
         e5:f4:79:24:a4:6b:7c:e3:f3:49:c3:1d:e1:5f:52:b4:bb:8e:
         7a:a1:b3:5c:be:d6:09:66:6c:f1:c5:28:d9:9c:12:dc:d7:e7:
         af:bb:83:10:80:59:bb:70:e9:d6:e2:21:7d:00:3d:51:d7:30:
         66:3c:c1:f5:63:69:b5:c3:4f:be:2b:50:74:27:f0:c4:19:2c:
         61:53:54:38:e3:ba:8d:78:b1:43:32:d2:61:04:34:e6:f3:54:
         f9:32:04:b6:af:fd:7e:c1:b7:d5:75:4e:fa:9f:55:a1:d7:ee:
         62:45:d1:fa:d8:a0:d0:97:87:86:5c:66:f5:bb:d1:5a:73:33:
         1c:c0:aa:ae:bd:17:4b:d4:03:81:90:c6:8e:26:5c:0f:12:13:
         64:5c:83:b1:75:11:01:74:eb:0d:8a:4e:9c:6c:52:6f:38:32:
         7d:ec:2f:58:dc:cc:ee:56:6f:2a:f1:85:be:19:09:4b:a5:2d:
         c5:37:c2:8d:67:c7:9b:bb:a8:4b:bf:cd:f1:fe:ff:8b:dc:fe:
         10:8b:d4:b7:ce:e7:08:09:d4:b7:76:7a:b2:1f:cc:e0:99:73:
         94:6b:5b:76:33:1a:0d:79:e3:2e:09:46:cd:96:63:26:b3:9a:
         5e:2b:d4:9d:96:40:c3:db:90:54:a9:7a:f7:fa:57:23:9b:3a:
         77:f4:34:3b:a9:fd:e6:44:17:54:c8:1b:5b:cc:d1:7b:74:cc:
         b3:4b:48:38:db:73:1f:0f:c8:7b:eb:b6:41:7e:44:7d:4a:a8:
         50:06:ac:81:88:92:00:5a:69:ad:66:2b:90:32:95:ad:0c:cd:
         13:b7:d9:ac:d8:3c:de:5d:66:c6:95:2d:87:4f:b8:d7:a0:59:
         86:b5:bc:40:7d:b0
-----BEGIN CERTIFICATE-----
MIIG1TCCBT2gAwIBAgIUdsQy9tKrHe53LccOk95nRk4yB8kwDQYJKoZIhvcNAQEL
BQAwTTELMAkGA1UEBhMCWFkxJjAkBgNVBAoMHVB5dGhvbiBTb2Z0d2FyZSBGb3Vu
ZGF0aW9uIENBMRYwFAYDVQQDDA1vdXItY2Etc2VydmVyMB4XDTIwMDcyODE2MDM1
NloXDTMwMDYwNjE2MDM1NlowXTELMAkGA1UEBhMCWFkxFzAVBgNVBAcMDkNhc3Rs
ZSBBbnRocmF4MSMwIQYDVQQKDBpQeXRob24gU29mdHdhcmUgRm91bmRhdGlvbjEQ
MA4GA1UEAwwHaWRuc2FuczCCAaIwDQYJKoZIhvcNAQEBBQADggGPADCCAYoCggGB
AL92YPJnec1WDcebtbT5PQqFqCuVRK8Ojl7Yul8SCBs9jXVN/1t9PJ0SpSdCxolE
LfZ275at8QdVvG8Bblg8p/04cIX+o9UHKpjlIOhqUCuBNgofzZnfISwte2LOWF6T
qDL0Gl270a4ZPCzWf3b7H81u+nB3AFNQ7Q1PPORzQquYpRCXhWLLH7x0Jh7HpvSf
kwN67/VjLV6m2a27lvA71RLjhfHOOfjUCNKP83MP7bnALik46W8K58xU01GiDu29
Ig71oTZN5U/f/tH8NGOS1077xJZul+z9nbRdWcEC48SW4upQwop7AeGuQyScAkls
fc4z8b7e8ZupxqGuF9TcNu0eUMWcRf9gApueLL151og2n0Ht9vEdfj1yOuiwXE/r
L+lldTK1UI56zC3fgKS4L2h/ljh16ETT3oxjwFPzUHoE783UgmEfjs6trwaOVVR2
7OxhcL67kgh1QRU5uh3cHB4TOf5jjW3yTzy3JZSuMyUs9OFw/+S1FFqb5dpgm7UL
WwIDAQABo4ICmzCCApcwgeEGA1UdEQSB2TCB1oIHaWRuc2Fuc4IfeG4tLWtuaWct
NXFhLmlkbi5weXRob250ZXN0Lm5ldIIueG4tLWtuaWdzZ3NzY2hlbi1sY2Iwdy5p
ZG5hMjAwMy5weXRob250ZXN0Lm5ldIIueG4tLWtuaWdzZ2NoZW4tYjRhM2R1bi5p
ZG5hMjAwOC5weXRob250ZXN0Lm5ldIIkeG4tLW54YXNtcTZiLmlkbmEyMDAzLnB5
dGhvbnRlc3QubmV0giR4bi0tbnhhc21tMWMuaWRuYTIwMDgucHl0aG9udGVzdC5u
ZXQwDgYDVR0PAQH/BAQDAgWgMB0GA1UdJQQWMBQGCCsGAQUFBwMBBggrBgEFBQcD
AjAMBgNVHRMBAf8EAjAAMB0GA1UdDgQWBBQvLQv4t96OHxRMJ5PLfYp/vPLVejCB
iQYDVR0jBIGBMH+AFF5Xoq8HUzX2oV0z49SGxguPN5VUoVGkTzBNMQswCQYDVQQG
EwJYWTEmMCQGA1UECgwdUHl0aG9uIFNvZnR3YXJlIEZvdW5kYXRpb24gQ0ExFjAU
BgNVBAMMDW91ci1jYS1zZXJ2ZXKCFHbEMvbSqx3udy3HDpPeZ0ZOMgfFMIGDBggr
BgEFBQcBAQR3MHUwPAYIKwYBBQUHMAKGMGh0dHA6Ly90ZXN0Y2EucHl0aG9udGVz
dC5uZXQvdGVzdGNhL3B5Y2FjZXJ0LmNlcjA1BggrBgEFBQcwAYYpaHR0cDovL3Rl
c3RjYS5weXRob250ZXN0Lm5ldC90ZXN0Y2Evb2NzcC8wQwYDVR0fBDwwOjA4oDag
NIYyaHR0cDovL3Rlc3RjYS5weXRob250ZXN0Lm5ldC90ZXN0Y2EvcmV2b2NhdGlv
bi5jcmwwDQYJKoZIhvcNAQELBQADggGBAFDCMw2dyYfqdB8Qs7LJU7vq4TvJddM3
Ck4E0xKwRBp+kk5WO4e+8+wFDnZR47h+N0ufujsDYuX0eSSka3zj80nDHeFfUrS7
jnqhs1y+1glmbPHFKNmcEtzX56+7gxCAWbtw6dbiIX0APVHXMGY8wfVjabXDT74r
UHQn8MQZLGFTVDjjuo14sUMy0mEENObzVPkyBLav/X7Bt9V1TvqfVaHX7mJF0frY
oNCXh4ZcZvW70VpzMxzAqq69F0vUA4GQxo4mXA8SE2Rcg7F1EQF06w2KTpxsUm84
Mn3sL1jczO5Wbyrxhb4ZCUulLcU3wo1nx5u7qEu/zfH+/4vc/hCL1LfO5wgJ1Ld2
erIfzOCZc5RrW3YzGg154y4JRs2WYyazml4r1J2WQMPbkFSpevf6VyObOnf0NDup
/eZEF1TIG1vM0Xt0zLNLSDjbcx8PyHvrtkF+RH1KqFAGrIGIkgBaaa1mK5Ayla0M
zRO32azYPN5dZsaVLYdPuNegWYa1vEB9sA==
-----END CERTIFICATE-----
