-----BEGIN PRIVATE KEY-----
MIG2AgEAMBAGByqGSM49AgEGBSuBBAAiBIGeMIGbAgEBBDBtpXFJhtYxdaxktAZc
vcI/7RVC1iZf2B9WYjisOslwirUr5oAZSKR8AcDS0lY61I+hZANiAAR97u0akZJy
sioaQo3x5H4cRS+bc2LVv2782j6A6+5IOT79s5/gAz0DJiRUT8BhhhAaLQ4YBehL
/hDSmos4XpX012imhgCh/UFU0H1I4ly5UFTwzOCWb9Sk3Tr/Eh2r/zU=
-----END PRIVATE KEY-----
Certificate:
    Data:
        Version: 3 (0x2)
        Serial Number:
            76:c4:32:f6:d2:ab:1d:ee:77:2d:c7:0e:93:de:67:46:4e:32:07:c8
        Signature Algorithm: sha256WithRSAEncryption
        Issuer: C=XY, O=Python Software Foundation CA, CN=our-ca-server
        Validity
            Not Before: Jul 28 16:03:56 2020 GMT
            Not After : Jun  6 16:03:56 2030 GMT
        Subject: C=XY, L=Castle Anthrax, O=Python Software Foundation, CN=localhost-ecc
        Subject Public Key Info:
            Public Key Algorithm: id-ecPublicKey
                Public-Key: (384 bit)
                pub:
                    04:7d:ee:ed:1a:91:92:72:b2:2a:1a:42:8d:f1:e4:
                    7e:1c:45:2f:9b:73:62:d5:bf:6e:fc:da:3e:80:eb:
                    ee:48:39:3e:fd:b3:9f:e0:03:3d:03:26:24:54:4f:
                    c0:61:86:10:1a:2d:0e:18:05:e8:4b:fe:10:d2:9a:
                    8b:38:5e:95:f4:d7:68:a6:86:00:a1:fd:41:54:d0:
                    7d:48:e2:5c:b9:50:54:f0:cc:e0:96:6f:d4:a4:dd:
                    3a:ff:12:1d:ab:ff:35
                ASN1 OID: secp384r1
                NIST CURVE: P-384
        X509v3 extensions:
            X509v3 Subject Alternative Name: 
                DNS:localhost-ecc
            X509v3 Key Usage: critical
                Digital Signature, Key Encipherment
            X509v3 Extended Key Usage: 
                TLS Web Server Authentication, TLS Web Client Authentication
            X509v3 Basic Constraints: critical
                CA:FALSE
            X509v3 Subject Key Identifier: 
                11:0F:B0:10:65:C1:75:46:E7:0F:4C:29:B6:C8:BF:26:AF:B6:A1:DC
            X509v3 Authority Key Identifier: 
                keyid:5E:57:A2:AF:07:53:35:F6:A1:5D:33:E3:D4:86:C6:0B:8F:37:95:54
                DirName:/C=XY/O=Python Software Foundation CA/CN=our-ca-server
                serial:76:C4:32:F6:D2:AB:1D:EE:77:2D:C7:0E:93:DE:67:46:4E:32:07:C5

            Authority Information Access: 
                CA Issuers - URI:http://testca.pythontest.net/testca/pycacert.cer
                OCSP - URI:http://testca.pythontest.net/testca/ocsp/

            X509v3 CRL Distribution Points: 

                Full Name:
                  URI:http://testca.pythontest.net/testca/revocation.crl

    Signature Algorithm: sha256WithRSAEncryption
         b6:63:23:78:bc:76:f2:f3:85:ed:3c:7e:8e:69:5f:a0:64:b9:
         44:fd:66:75:8b:94:a3:92:b9:09:46:f2:62:52:1c:87:b8:34:
         28:fc:f6:83:60:dc:a8:66:b5:07:22:87:4e:91:5c:cf:b6:b9:
         a5:73:1b:36:04:48:dd:0f:9f:27:f5:0d:50:2a:29:51:0d:a5:
         71:68:b0:b3:a1:85:b9:4f:75:4a:37:e0:36:00:6b:46:4e:71:
         95:74:31:9b:e6:40:2b:5c:25:61:2f:27:c0:8c:87:53:ee:e7:
         37:87:00:b0:88:ce:db:15:42:a5:ae:e9:1a:6d:88:51:53:39:
         70:19:15:28:5b:07:79:89:b8:a1:8d:9d:e8:7c:91:0f:8f:34:
         a0:9f:aa:65:86:05:39:f0:9c:a4:ed:54:6d:c3:78:45:f2:72:
         50:16:0e:26:75:88:ce:61:61:1d:9e:46:fc:9d:87:8d:02:b9:
         6c:82:17:e5:0a:59:5e:59:5d:e9:e6:1a:b9:36:01:36:2e:b3:
         96:7b:04:dd:c9:8a:f0:57:81:cf:31:6f:1f:83:5a:af:42:8e:
         a5:38:6d:82:a2:68:40:29:4a:55:0d:02:dd:b6:32:3b:cb:11:
         e9:44:7c:6d:50:72:dd:c9:c6:f1:5d:bb:34:c8:db:47:18:79:
         c0:f4:83:d6:43:d1:e8:84:59:a0:ba:0b:12:37:84:ab:f0:4d:
         4c:b9:f7:8e:f1:56:62:84:54:99:2e:47:d3:ab:6e:6d:04:10:
         22:ec:d5:6d:55:d2:6c:6e:3a:65:d2:cd:67:68:72:e5:95:0f:
         dd:48:5b:9f:a0:4f:29:a8:66:9a:48:e6:e7:a7:b6:86:7f:0f:
         5f:99:27:51:08:9e:dc:d7:45:0e:4d:93:df:9e:e1:00:93:48:
         f7:40:a7:5c:48:b1:5b:df:61:46:30:a0:7f:48:7c:90:e4:87:
         1a:bb:b7:22:a5:83:91:ff:66:4f:e6:9a:58:b4:dd:ba:34:67:
         b0:57:f9:67:f9:9e
-----BEGIN CERTIFICATE-----
MIIE4zCCA0ugAwIBAgIUdsQy9tKrHe53LccOk95nRk4yB8gwDQYJKoZIhvcNAQEL
BQAwTTELMAkGA1UEBhMCWFkxJjAkBgNVBAoMHVB5dGhvbiBTb2Z0d2FyZSBGb3Vu
ZGF0aW9uIENBMRYwFAYDVQQDDA1vdXItY2Etc2VydmVyMB4XDTIwMDcyODE2MDM1
NloXDTMwMDYwNjE2MDM1NlowYzELMAkGA1UEBhMCWFkxFzAVBgNVBAcMDkNhc3Rs
ZSBBbnRocmF4MSMwIQYDVQQKDBpQeXRob24gU29mdHdhcmUgRm91bmRhdGlvbjEW
MBQGA1UEAwwNbG9jYWxob3N0LWVjYzB2MBAGByqGSM49AgEGBSuBBAAiA2IABH3u
7RqRknKyKhpCjfHkfhxFL5tzYtW/bvzaPoDr7kg5Pv2zn+ADPQMmJFRPwGGGEBot
DhgF6Ev+ENKaizhelfTXaKaGAKH9QVTQfUjiXLlQVPDM4JZv1KTdOv8SHav/NaOC
AdEwggHNMBgGA1UdEQQRMA+CDWxvY2FsaG9zdC1lY2MwDgYDVR0PAQH/BAQDAgWg
MB0GA1UdJQQWMBQGCCsGAQUFBwMBBggrBgEFBQcDAjAMBgNVHRMBAf8EAjAAMB0G
A1UdDgQWBBQRD7AQZcF1RucPTCm2yL8mr7ah3DCBiQYDVR0jBIGBMH+AFF5Xoq8H
UzX2oV0z49SGxguPN5VUoVGkTzBNMQswCQYDVQQGEwJYWTEmMCQGA1UECgwdUHl0
aG9uIFNvZnR3YXJlIEZvdW5kYXRpb24gQ0ExFjAUBgNVBAMMDW91ci1jYS1zZXJ2
ZXKCFHbEMvbSqx3udy3HDpPeZ0ZOMgfFMIGDBggrBgEFBQcBAQR3MHUwPAYIKwYB
BQUHMAKGMGh0dHA6Ly90ZXN0Y2EucHl0aG9udGVzdC5uZXQvdGVzdGNhL3B5Y2Fj
ZXJ0LmNlcjA1BggrBgEFBQcwAYYpaHR0cDovL3Rlc3RjYS5weXRob250ZXN0Lm5l
dC90ZXN0Y2Evb2NzcC8wQwYDVR0fBDwwOjA4oDagNIYyaHR0cDovL3Rlc3RjYS5w
eXRob250ZXN0Lm5ldC90ZXN0Y2EvcmV2b2NhdGlvbi5jcmwwDQYJKoZIhvcNAQEL
BQADggGBALZjI3i8dvLzhe08fo5pX6BkuUT9ZnWLlKOSuQlG8mJSHIe4NCj89oNg
3KhmtQcih06RXM+2uaVzGzYESN0Pnyf1DVAqKVENpXFosLOhhblPdUo34DYAa0ZO
cZV0MZvmQCtcJWEvJ8CMh1Pu5zeHALCIztsVQqWu6RptiFFTOXAZFShbB3mJuKGN
neh8kQ+PNKCfqmWGBTnwnKTtVG3DeEXyclAWDiZ1iM5hYR2eRvydh40CuWyCF+UK
WV5ZXenmGrk2ATYus5Z7BN3JivBXgc8xbx+DWq9CjqU4bYKiaEApSlUNAt22MjvL
EelEfG1Qct3JxvFduzTI20cYecD0g9ZD0eiEWaC6CxI3hKvwTUy5947xVmKEVJku
R9Orbm0EECLs1W1V0mxuOmXSzWdocuWVD91IW5+gTymoZppI5uentoZ/D1+ZJ1EI
ntzXRQ5Nk9+e4QCTSPdAp1xIsVvfYUYwoH9IfJDkhxq7tyKlg5H/Zk/mmli03bo0
Z7BX+Wf5ng==
-----END CERTIFICATE-----
