-----BEGIN PRIVATE KEY-----
MIIG/wIBADANBgkqhkiG9w0BAQEFAASCBukwggblAgEAAoIBgQCfrwCG/crACj72
nwySQ3kB/RSEtWOcys4JJiEKG7q5cppf0umg/VIKAg2GoxGWpZI87qeinNJ9+MZ7
C7b/KrEE7EVgZiupd5w9wZG/4HaWALABom0S1P3OQ5PxMq8/f2TwZhlqRsymb5oH
QD5DH4lTl3wq/bYT5PMf1zOoBnXf0eL5gsp+G5HjPlBsNBvlxvLDCocnUY1muIxE
fQOku9J4txLuLS0eGtj4ZAxZZo70nTLIypTSJxCJ7pNByHrlsmltUZX/YORYr5zh
IwyMsBFYAXX7VFLTGYhLf48jZ1X06t8VnLmxgJJSlZ7wv+TQHiIchzRSR+9Crv1z
GmGkHvj7UGGWjVCAA22Biu4GH1qfAce0L3oLemUEUqZw6z+OsGI40OnDXw+Px3z0
tau9FfsYUg/qj5VRPyNf5/D67FUwPA3iE2AK/H4ZvqThbefojZRkv4x0rQ7EGIgy
xpdSjUxksb6d1kvmCPHtUExUR1S3xGixPa68Y65k3lVXh3s7zScCAwEAAQKCAYEA
nATgDgUwsXwRUuPJ46rbM68z+gpEnrCkqNnBVGANjB5GaTPpI2v/WVnyH0d66ucx
QCmqTr7NB1oni5fBoAT1WqsDihGpvXXpiYl0v7YwB5X6Yk5yJgFHTt5GUVdFVVRC
qoQHdwhf8op+Q3FopCrPAYa0QkkMOtnrFoQsq5JMX3hyPXmmIZsMaqy65U3wqAw/
q4PA1BDhiKjuHAjNo4oENgAiFea7+3sd3WvbiQokySpCsV8GE2MpzKr25EJemck7
n7yTN3PfT0xKTFLLQghPZ58DPZOXcm0qLeGUx0IuXL/3pWWhDZ0DMksP9P+AitkA
+mr2BtHtLPzuCzkNtg7SkT6JKJXEYD+d47mdQBR8TTV5vSmJAhGQjqoWMl4XK9qP
wSQKr36dp7LICO6OLSbBvmmPPCTagU/zEI2u/FNWijwSOBXzbykIM6i+hiSLN8rA
WDIBVGaGrlK0q30gfsJCI1K1wDavn6VmqPYyEz8Zkg408t1DJNvIyrpZpnK09CjZ
AoHBANHw4Ah0J+6T70+jXrsm4KsajI/gMUWRMkZiveOMdXKbnrRMQcUoO7WdZyFK
07Wp1lYRQyNdqVlg05Mp9EChyiIZ+8nXCcicRsf6/3yJEQ59YISUP9A4I+DADnGg
0OtDh/1C+5X0lmij8cXbbFN1UMDPoaKdjG0yYhw3pONgmr9zJuXmGPL+27CfEjw1
NmENGNQPQn5qXO1PKZeExwGFb59/5KyWQP2ZTijGsJPIdqxoMV8nY3vP0fMwLEIC
Ncy2LQKBwQDCt3loXKWxindr/Fgoy/Ae9ywF5g9rCzzz5PewtHhmI4dION/z3nIp
Z3axl0JO/jWnKDdnZ/v6UfQYCKrEvqWRJzpVZdiKicC8b0rvXh1jdhlBbpwbSfvk
zGWAXvzIA/GyniqtEqhuZn1/zOj/kxW2uy7UuHMnxejzLuTQLWS5+gHUofCBg7U0
yFQ++14edMe43dPMGU2/Sgb5kbuLL4rWlRZ+1uO081atku5zlyzxbS3owrN2SDzM
4nzs9s2WmSMCgcEAqyhMHdhFLfahpjW057O8ewK8EhhfUy4a5NNfqII8xmElNCzv
egNhGqHnEHdmvrZmLekI6W5UwK92DoanwYGlv8ObSWTtbwYplqSFYkyFAWEqLSyI
EgOTDIrHu8+2Q/fciJfxcMHlVg5C8GIBoNEGMwuT5XW4pNXsssCSx2VdBDSnQ8si
EAnDpe0p+rgPS3RYB5shRNsGQ9rEN+liLVVSOaEVF7ev6JDx7cB++Rz303tmtQLx
0mEN88wUaQRQRENJAoHACPU14aY5fTR4kAA48g+HyXTnkpHl7a/DqxjCiF+VFmXW
CG2NaAO4zszSuhLSWx34y+reuaQgBIEWsLBdYtW+ejIKzfj0gFMcCc847FAxG+1H
9imnht3dd8YreT9lc7IywVvjbLjqBMI0TdfYdEGJAzITUnf13EOPlvh2UFl2Q9QL
l4Ons92iTX5V2dvolZAbzBZwcvhLClzWe07ICPwz7/FF6qnqKd30A+I5lBnFWIoE
Tav/Y5apLWfSBXjJNn9vAoHBAMK46JrNXWfXWPd/wOIR1/inpdOGbba7QrgTSBby
2mDfypV2s/dozsYfcY//PPH+b21GscR7Z7JF+sw7k0ptHock0zEhG76Uu88r5fJS
r2B6q3h5Va59amfpN46cy0Fvtqk6qftH4YKjP1HXpSheNGSPG9rII8B5azKNKbfV
/boPMQknghkC9lKoP20dsoY2u08HYy4yBJ7bt5C+ns06E7uen1y+Qtly01Cn19TV
ByuD7JQGvH3nLv/vF16fP0MHaw==
-----END PRIVATE KEY-----
Certificate:
    Data:
        Version: 3 (0x2)
        Serial Number:
            76:c4:32:f6:d2:ab:1d:ee:77:2d:c7:0e:93:de:67:46:4e:32:07:c6
        Signature Algorithm: sha256WithRSAEncryption
        Issuer: C=XY, O=Python Software Foundation CA, CN=our-ca-server
        Validity
            Not Before: Jul 28 16:03:55 2020 GMT
            Not After : Jun  6 16:03:55 2030 GMT
        Subject: C=XY, L=Castle Anthrax, O=Python Software Foundation, CN=localhost
        Subject Public Key Info:
            Public Key Algorithm: rsaEncryption
                RSA Public-Key: (3072 bit)
                Modulus:
                    00:9f:af:00:86:fd:ca:c0:0a:3e:f6:9f:0c:92:43:
                    79:01:fd:14:84:b5:63:9c:ca:ce:09:26:21:0a:1b:
                    ba:b9:72:9a:5f:d2:e9:a0:fd:52:0a:02:0d:86:a3:
                    11:96:a5:92:3c:ee:a7:a2:9c:d2:7d:f8:c6:7b:0b:
                    b6:ff:2a:b1:04:ec:45:60:66:2b:a9:77:9c:3d:c1:
                    91:bf:e0:76:96:00:b0:01:a2:6d:12:d4:fd:ce:43:
                    93:f1:32:af:3f:7f:64:f0:66:19:6a:46:cc:a6:6f:
                    9a:07:40:3e:43:1f:89:53:97:7c:2a:fd:b6:13:e4:
                    f3:1f:d7:33:a8:06:75:df:d1:e2:f9:82:ca:7e:1b:
                    91:e3:3e:50:6c:34:1b:e5:c6:f2:c3:0a:87:27:51:
                    8d:66:b8:8c:44:7d:03:a4:bb:d2:78:b7:12:ee:2d:
                    2d:1e:1a:d8:f8:64:0c:59:66:8e:f4:9d:32:c8:ca:
                    94:d2:27:10:89:ee:93:41:c8:7a:e5:b2:69:6d:51:
                    95:ff:60:e4:58:af:9c:e1:23:0c:8c:b0:11:58:01:
                    75:fb:54:52:d3:19:88:4b:7f:8f:23:67:55:f4:ea:
                    df:15:9c:b9:b1:80:92:52:95:9e:f0:bf:e4:d0:1e:
                    22:1c:87:34:52:47:ef:42:ae:fd:73:1a:61:a4:1e:
                    f8:fb:50:61:96:8d:50:80:03:6d:81:8a:ee:06:1f:
                    5a:9f:01:c7:b4:2f:7a:0b:7a:65:04:52:a6:70:eb:
                    3f:8e:b0:62:38:d0:e9:c3:5f:0f:8f:c7:7c:f4:b5:
                    ab:bd:15:fb:18:52:0f:ea:8f:95:51:3f:23:5f:e7:
                    f0:fa:ec:55:30:3c:0d:e2:13:60:0a:fc:7e:19:be:
                    a4:e1:6d:e7:e8:8d:94:64:bf:8c:74:ad:0e:c4:18:
                    88:32:c6:97:52:8d:4c:64:b1:be:9d:d6:4b:e6:08:
                    f1:ed:50:4c:54:47:54:b7:c4:68:b1:3d:ae:bc:63:
                    ae:64:de:55:57:87:7b:3b:cd:27
                Exponent: 65537 (0x10001)
        X509v3 extensions:
            X509v3 Subject Alternative Name: 
                DNS:localhost
            X509v3 Key Usage: critical
                Digital Signature, Key Encipherment
            X509v3 Extended Key Usage: 
                TLS Web Server Authentication, TLS Web Client Authentication
            X509v3 Basic Constraints: critical
                CA:FALSE
            X509v3 Subject Key Identifier: 
                37:FD:51:A7:3A:36:E1:BA:1E:C7:60:E2:25:AD:37:2B:04:3F:08:C7
            X509v3 Authority Key Identifier: 
                keyid:5E:57:A2:AF:07:53:35:F6:A1:5D:33:E3:D4:86:C6:0B:8F:37:95:54
                DirName:/C=XY/O=Python Software Foundation CA/CN=our-ca-server
                serial:76:C4:32:F6:D2:AB:1D:EE:77:2D:C7:0E:93:DE:67:46:4E:32:07:C5

            Authority Information Access: 
                CA Issuers - URI:http://testca.pythontest.net/testca/pycacert.cer
                OCSP - URI:http://testca.pythontest.net/testca/ocsp/

            X509v3 CRL Distribution Points: 

                Full Name:
                  URI:http://testca.pythontest.net/testca/revocation.crl

    Signature Algorithm: sha256WithRSAEncryption
         73:46:c4:57:dc:5c:54:08:eb:b7:48:81:e4:f5:3e:0b:ce:9a:
         ce:fc:2b:d1:f1:e5:47:a9:7f:a1:ba:97:7b:98:ff:48:f9:b8:
         13:6d:15:04:e0:2b:da:7d:83:a2:43:05:9e:09:cc:b1:67:8d:
         be:da:68:ef:5a:0f:ff:c4:fd:7c:50:a1:bd:8f:1c:28:08:5d:
         ab:ec:42:75:c1:22:84:ff:be:cd:e3:54:01:f4:fb:7d:4a:3b:
         df:f8:95:a7:d1:ee:17:ba:51:e5:74:6f:43:e0:1f:67:79:ca:
         7a:82:a3:6a:4f:32:76:69:9c:e5:96:d4:ca:d1:03:21:f4:bf:
         56:02:88:36:c4:6f:a2:f6:1b:6e:1a:5a:f8:ef:30:77:a6:c7:
         2f:42:0e:a7:47:b7:f0:1a:7c:18:55:96:7e:44:39:f8:c1:87:
         78:2d:d2:96:7b:85:74:b3:31:b5:2e:6b:56:b1:75:61:e1:78:
         8f:fd:2b:54:aa:48:8e:fa:8b:a8:c6:b2:6f:ea:e7:35:c9:2c:
         bc:6a:bc:68:59:fa:63:5f:14:ff:36:39:05:67:e4:e4:ec:d9:
         72:b8:45:b7:82:5c:f0:f7:e1:1e:16:22:72:23:13:59:b4:89:
         44:9e:cc:8c:11:6e:e1:05:73:dd:83:c5:49:99:15:f8:21:51:
         e4:75:5b:2e:d1:94:6e:cf:44:f4:2f:01:27:71:2a:d1:dd:7b:
         04:53:97:a4:cd:03:ef:d8:aa:e7:5d:44:36:1a:72:02:68:2e:
         b8:72:a8:68:49:0a:69:46:b1:0a:23:9c:89:aa:36:0b:3f:e1:
         dd:5f:5d:70:5a:f3:08:0b:37:3d:55:61:ce:76:a0:0a:ff:8b:
         b6:8b:8f:19:99:4a:12:6d:32:56:bf:68:19:c5:b1:e6:f2:19:
         1c:95:8a:27:60:18:a5:c1:e4:04:4a:e2:64:ef:86:3f:dc:4a:
         fd:3d:1c:9a:42:f5:03:29:f5:0a:ec:93:59:df:5e:51:12:28:
         67:f5:df:a8:58:71
-----BEGIN CERTIFICATE-----
MIIGCTCCBHGgAwIBAgIUdsQy9tKrHe53LccOk95nRk4yB8YwDQYJKoZIhvcNAQEL
BQAwTTELMAkGA1UEBhMCWFkxJjAkBgNVBAoMHVB5dGhvbiBTb2Z0d2FyZSBGb3Vu
ZGF0aW9uIENBMRYwFAYDVQQDDA1vdXItY2Etc2VydmVyMB4XDTIwMDcyODE2MDM1
NVoXDTMwMDYwNjE2MDM1NVowXzELMAkGA1UEBhMCWFkxFzAVBgNVBAcMDkNhc3Rs
ZSBBbnRocmF4MSMwIQYDVQQKDBpQeXRob24gU29mdHdhcmUgRm91bmRhdGlvbjES
MBAGA1UEAwwJbG9jYWxob3N0MIIBojANBgkqhkiG9w0BAQEFAAOCAY8AMIIBigKC
AYEAn68Ahv3KwAo+9p8MkkN5Af0UhLVjnMrOCSYhChu6uXKaX9LpoP1SCgINhqMR
lqWSPO6nopzSffjGewu2/yqxBOxFYGYrqXecPcGRv+B2lgCwAaJtEtT9zkOT8TKv
P39k8GYZakbMpm+aB0A+Qx+JU5d8Kv22E+TzH9czqAZ139Hi+YLKfhuR4z5QbDQb
5cbywwqHJ1GNZriMRH0DpLvSeLcS7i0tHhrY+GQMWWaO9J0yyMqU0icQie6TQch6
5bJpbVGV/2DkWK+c4SMMjLARWAF1+1RS0xmIS3+PI2dV9OrfFZy5sYCSUpWe8L/k
0B4iHIc0UkfvQq79cxphpB74+1Bhlo1QgANtgYruBh9anwHHtC96C3plBFKmcOs/
jrBiONDpw18Pj8d89LWrvRX7GFIP6o+VUT8jX+fw+uxVMDwN4hNgCvx+Gb6k4W3n
6I2UZL+MdK0OxBiIMsaXUo1MZLG+ndZL5gjx7VBMVEdUt8RosT2uvGOuZN5VV4d7
O80nAgMBAAGjggHNMIIByTAUBgNVHREEDTALgglsb2NhbGhvc3QwDgYDVR0PAQH/
BAQDAgWgMB0GA1UdJQQWMBQGCCsGAQUFBwMBBggrBgEFBQcDAjAMBgNVHRMBAf8E
AjAAMB0GA1UdDgQWBBQ3/VGnOjbhuh7HYOIlrTcrBD8IxzCBiQYDVR0jBIGBMH+A
FF5Xoq8HUzX2oV0z49SGxguPN5VUoVGkTzBNMQswCQYDVQQGEwJYWTEmMCQGA1UE
CgwdUHl0aG9uIFNvZnR3YXJlIEZvdW5kYXRpb24gQ0ExFjAUBgNVBAMMDW91ci1j
YS1zZXJ2ZXKCFHbEMvbSqx3udy3HDpPeZ0ZOMgfFMIGDBggrBgEFBQcBAQR3MHUw
PAYIKwYBBQUHMAKGMGh0dHA6Ly90ZXN0Y2EucHl0aG9udGVzdC5uZXQvdGVzdGNh
L3B5Y2FjZXJ0LmNlcjA1BggrBgEFBQcwAYYpaHR0cDovL3Rlc3RjYS5weXRob250
ZXN0Lm5ldC90ZXN0Y2Evb2NzcC8wQwYDVR0fBDwwOjA4oDagNIYyaHR0cDovL3Rl
c3RjYS5weXRob250ZXN0Lm5ldC90ZXN0Y2EvcmV2b2NhdGlvbi5jcmwwDQYJKoZI
hvcNAQELBQADggGBAHNGxFfcXFQI67dIgeT1PgvOms78K9Hx5Uepf6G6l3uY/0j5
uBNtFQTgK9p9g6JDBZ4JzLFnjb7aaO9aD//E/XxQob2PHCgIXavsQnXBIoT/vs3j
VAH0+31KO9/4lafR7he6UeV0b0PgH2d5ynqCo2pPMnZpnOWW1MrRAyH0v1YCiDbE
b6L2G24aWvjvMHemxy9CDqdHt/AafBhVln5EOfjBh3gt0pZ7hXSzMbUua1axdWHh
eI/9K1SqSI76i6jGsm/q5zXJLLxqvGhZ+mNfFP82OQVn5OTs2XK4RbeCXPD34R4W
InIjE1m0iUSezIwRbuEFc92DxUmZFfghUeR1Wy7RlG7PRPQvASdxKtHdewRTl6TN
A+/YquddRDYacgJoLrhyqGhJCmlGsQojnImqNgs/4d1fXXBa8wgLNz1VYc52oAr/
i7aLjxmZShJtMla/aBnFsebyGRyViidgGKXB5ARK4mTvhj/cSv09HJpC9QMp9Qrs
k1nfXlESKGf136hYcQ==
-----END CERTIFICATE-----
