-----BEGIN PRIVATE KEY-----
MIIG/QIBADANBgkqhkiG9w0BAQEFAASCBucwggbjAgEAAoIBgQCz8lnVVpytqbl4
eP0GxGBYYZLfH+m+xiONASc71K3CO+kiXG4Fq0yl7GJk6ng90lpy/AG+NuANfRd3
3DpNzTHvFtyV8IaL8d0rxXrZq4upB62p0g99H60v2Vb3rCoMeQUIXPeSi8uwcU0X
NOxaOADQEoa9+z4pE5vj1gziSMhx4fSmRLhBs84hcq8T5wp2oNk1C0xZuteOP/cK
zJaEW31O/MSTVGka4pOjd9nn3YdSUtkJ8DlLPWGv44KAh5D7gzHNwy9fb4xOGMVr
9PtvW2DwFfv7Zf7ljnIs9PydEpzsKxYiCwxP0KRzGLrmaayyFJ11V1ox0xA2lA2A
rVMmeZhY/gvGjeGoYz9hSv1mKu5iztoLsA8E70YBZi3BXIpSDqFc9G6Ei+a+WZGG
2UNIUIHvYK2qyYbShDDQzpiR8NP4NxBLmR8qnJHaHHNE31c/LZrefY6hiD7HHuCe
uHSAfj0+KJnmLYtWMFN6qLwU3tLC4WMkpUDaH0fFpRM2/g8LuXsCAwEAAQKCAYAx
0YbNaY03ByYyFEz48qU50sm2vD8acgClqQwTpG32uF9zA+Px7drqlOcoyUFA3Fvu
OZbB8q9VDKzSokYCBC0u5EVtvYmCdROmaqX4XWXtBhMuUNm46mwoMyPArgl2Kosa
JaLlD4706mlNY3mMALU45egn8Mbk2GjwSvKGM2BLJyN0ZNIeXolS+U0/VVewQBfi
d55LuU60M0FR3BJP0oR+ubwyjcwLhW8acrQBXXN5dzZfagJysiu5ZmNa8i1RdKB+
ROxTjd7TfLTOTeDHFivV83UsZFKme3uKnU/Dm1f9nZLrhUsNKtPcT1H7Z8djLLkU
0IPAlJzarZz3ihds9O1Nv9GXDArEpZYB7y/m/7+Mi+gz1h9io/KVqf/wQfk4VgLQ
l9svBEB+jFlx5V3tIGp7fpronZrNw75e8oS/Qu7oCa4BA5d5kPIlYHbmaAhQgxBs
M4M6FJLRa6zZwrRdLZfYsIN/UeBzfqIBUoF9Oht7uoZyh+ck93QXZv+0C4aiLAEC
gcEA37SXr814LeqjGNUBe48ksw/4ss7L9/eTl3aN1Lz+38gmDk++oC0cSceTOvbx
+SFvyhr5iP9q0e3rwf5kpUX+1XbwRp5A+vdI9+V3KK3bvDeQXSL4kZlYHws/kFjb
Y3z4mCxxh0Yj9MkKK97uMFOFu0PG2lMFjyg+qPZ3vcLRRsufbg5181Nxz8Lrh5M3
dArl65ovuh7/yaEEKvnYBVpWGpG7D9xIJ8G+WFs87pPPS/OmwManblIdsljkjeqX
nUSRAoHBAM3slKG38VdTfdLcfX6JJX4MoNvfADUtpEEqFOvYnT6mberBTlQglSd3
VKsVrmCftDGlrocScM2zV9ogC/p7BHs3M47ecfADSkjQusCna9/FDEgVnufGgSm9
gQJ7pftykwDn4OZBBuyZq/OZ8JmXhCmZppl8U4BVAJDOJKQ2Y5xNyE4rDJX7TVOu
du/hXNnf3yyf4TIGL43+HH0Br3IVKISLL26fYABkWKI9M/qPSvHgnJnY0a1J4EV7
txVHAzPzSwKBwBRijIAEpTLp8rrMjjoILTvz9KG2nneWI+jlcL82CbOytWUQdzp5
Yd6HRS9WWW5uUZWFJ8AIJl/C4nznBZzZ6ALjt7l3qkw0RH3ydw1J6oAYQBt8mFIM
Oy95Au3Qaw2B0dVsF1xQU+52c2rUAbh9o+4QmwpCDnuhGzSiYP71xcRBweFxh+YI
cJKSHIxaKe91HsZ9YmP/dyeUeKDB66FxPe9l4DntxNV6njHG/qJu7bDqHwPqFk/D
Q9mAqDMWcYJvQQKBwQDMiQuMoc7WxTg55AXGVGToEZUJLzPenioDC9Bh/fMZ0mdl
AIJTr1VXMQDpOgzNLnPlyEJVKWzf9B3zq1cagWwPEuJkKvCSzEHRl3mXd/P+/JLZ
WphOcO3ETtVAaR6RZdk70hWhvr8o7O5NdP71H/kG9PX0h/fMhSGdsxPUA63nB59I
fRvwMP86ehTq6Ta3tdTPVzJv5JMBf4A+bhkcwIVROYpwX18UpJcg9peVbRSssUP6
z9BcRf+8JEjSmolE5YcCgcByi+VCnmE546QUsim8/KDuAMlT9/Ly+dd1//7Yuzrw
trgk/wAdJ0Mpfo9QJgsuFNuCWI2Rb08rX2UrtPKAY0N6whCw0V0MqT/sCcRclQoy
fzucnByeFOf3NZQ068M+szMI21Sd2iAeOiGrZjM5Bkd/os9vcqvptm2R/hI0ByxF
/oZGDnIpvNLpRk7PBk/C92bK/qomjbUJy7JW1e+SmPQsRTGBZwAJZMkWW/HCFQfj
F6PmOJCqrn0QaLJhJp2XBZo=
-----END PRIVATE KEY-----
Certificate:
    Data:
        Version: 3 (0x2)
        Serial Number:
            76:c4:32:f6:d2:ab:1d:ee:77:2d:c7:0e:93:de:67:46:4e:32:07:c7
        Signature Algorithm: sha256WithRSAEncryption
        Issuer: C=XY, O=Python Software Foundation CA, CN=our-ca-server
        Validity
            Not Before: Jul 28 16:03:56 2020 GMT
            Not After : Jun  6 16:03:56 2030 GMT
        Subject: C=XY, L=Castle Anthrax, O=Python Software Foundation, CN=fakehostname
        Subject Public Key Info:
            Public Key Algorithm: rsaEncryption
                RSA Public-Key: (3072 bit)
                Modulus:
                    00:b3:f2:59:d5:56:9c:ad:a9:b9:78:78:fd:06:c4:
                    60:58:61:92:df:1f:e9:be:c6:23:8d:01:27:3b:d4:
                    ad:c2:3b:e9:22:5c:6e:05:ab:4c:a5:ec:62:64:ea:
                    78:3d:d2:5a:72:fc:01:be:36:e0:0d:7d:17:77:dc:
                    3a:4d:cd:31:ef:16:dc:95:f0:86:8b:f1:dd:2b:c5:
                    7a:d9:ab:8b:a9:07:ad:a9:d2:0f:7d:1f:ad:2f:d9:
                    56:f7:ac:2a:0c:79:05:08:5c:f7:92:8b:cb:b0:71:
                    4d:17:34:ec:5a:38:00:d0:12:86:bd:fb:3e:29:13:
                    9b:e3:d6:0c:e2:48:c8:71:e1:f4:a6:44:b8:41:b3:
                    ce:21:72:af:13:e7:0a:76:a0:d9:35:0b:4c:59:ba:
                    d7:8e:3f:f7:0a:cc:96:84:5b:7d:4e:fc:c4:93:54:
                    69:1a:e2:93:a3:77:d9:e7:dd:87:52:52:d9:09:f0:
                    39:4b:3d:61:af:e3:82:80:87:90:fb:83:31:cd:c3:
                    2f:5f:6f:8c:4e:18:c5:6b:f4:fb:6f:5b:60:f0:15:
                    fb:fb:65:fe:e5:8e:72:2c:f4:fc:9d:12:9c:ec:2b:
                    16:22:0b:0c:4f:d0:a4:73:18:ba:e6:69:ac:b2:14:
                    9d:75:57:5a:31:d3:10:36:94:0d:80:ad:53:26:79:
                    98:58:fe:0b:c6:8d:e1:a8:63:3f:61:4a:fd:66:2a:
                    ee:62:ce:da:0b:b0:0f:04:ef:46:01:66:2d:c1:5c:
                    8a:52:0e:a1:5c:f4:6e:84:8b:e6:be:59:91:86:d9:
                    43:48:50:81:ef:60:ad:aa:c9:86:d2:84:30:d0:ce:
                    98:91:f0:d3:f8:37:10:4b:99:1f:2a:9c:91:da:1c:
                    73:44:df:57:3f:2d:9a:de:7d:8e:a1:88:3e:c7:1e:
                    e0:9e:b8:74:80:7e:3d:3e:28:99:e6:2d:8b:56:30:
                    53:7a:a8:bc:14:de:d2:c2:e1:63:24:a5:40:da:1f:
                    47:c5:a5:13:36:fe:0f:0b:b9:7b
                Exponent: 65537 (0x10001)
        X509v3 extensions:
            X509v3 Subject Alternative Name: 
                DNS:fakehostname
            X509v3 Key Usage: critical
                Digital Signature, Key Encipherment
            X509v3 Extended Key Usage: 
                TLS Web Server Authentication, TLS Web Client Authentication
            X509v3 Basic Constraints: critical
                CA:FALSE
            X509v3 Subject Key Identifier: 
                70:44:EF:4C:A6:D6:BF:78:FF:F1:C3:DD:E9:4B:D4:26:47:64:38:06
            X509v3 Authority Key Identifier: 
                keyid:5E:57:A2:AF:07:53:35:F6:A1:5D:33:E3:D4:86:C6:0B:8F:37:95:54
                DirName:/C=XY/O=Python Software Foundation CA/CN=our-ca-server
                serial:76:C4:32:F6:D2:AB:1D:EE:77:2D:C7:0E:93:DE:67:46:4E:32:07:C5

            Authority Information Access: 
                CA Issuers - URI:http://testca.pythontest.net/testca/pycacert.cer
                OCSP - URI:http://testca.pythontest.net/testca/ocsp/

            X509v3 CRL Distribution Points: 

                Full Name:
                  URI:http://testca.pythontest.net/testca/revocation.crl

    Signature Algorithm: sha256WithRSAEncryption
         85:a0:d8:a7:5d:cb:25:be:59:06:33:1a:bb:76:be:59:17:3f:
         50:e3:50:5a:f5:d9:01:00:91:53:24:61:ad:49:29:27:88:fe:
         33:ce:bc:ad:06:9d:57:96:15:38:97:03:b2:c7:61:4f:88:fc:
         09:94:62:68:42:fb:3e:24:50:a7:c4:bc:86:1d:f1:9d:fb:13:
         aa:2c:f2:a3:78:0a:67:06:41:5e:71:0d:8b:7f:3b:92:35:c0:
         37:5d:1f:2c:14:38:f7:f9:77:0c:46:bc:4c:7f:cc:20:9a:1c:
         b4:e1:f2:52:9a:f2:12:3f:af:d2:08:a7:b7:1d:6f:85:15:f5:
         16:98:3a:3e:24:3c:8e:0b:69:ff:d5:34:39:42:8b:f8:4b:47:
         d6:6a:33:75:fe:6a:14:6e:70:87:e6:57:e2:4f:33:47:b4:8b:
         58:7a:37:00:49:09:39:82:30:67:34:1a:40:0d:85:b8:ff:d6:
         43:ae:36:b7:ef:58:92:ac:5b:29:03:8d:d9:93:e7:2e:9f:7a:
         df:67:3d:5e:01:3d:3a:c9:f3:bf:30:3f:38:aa:e5:7e:54:15:
         c8:9a:60:a1:c5:85:b4:88:07:78:52:25:46:50:9d:bc:6c:a8:
         9d:ad:de:43:ab:9e:8f:36:55:7b:5c:ed:98:6a:60:1e:24:12:
         90:22:c4:fc:61:80:6a:35:60:bf:a0:d3:6c:74:04:85:5d:bf:
         7f:91:c0:33:b2:2a:f9:8f:93:82:87:9b:f2:d7:4d:eb:9a:08:
         ac:c9:dc:95:4f:c3:72:c1:55:b6:e7:17:c2:c2:f4:2a:20:f3:
         ac:df:3d:77:a0:0a:b7:a8:96:2d:cc:3a:18:5a:51:6f:9c:72:
         4b:13:7f:b5:31:8e:58:2e:95:d0:24:18:0f:15:cc:ad:dc:e3:
         2b:7d:42:dc:0f:b0:e4:65:77:ea:0e:7c:c1:d8:51:6d:c1:8d:
         e0:95:e0:8f:6c:ec:1d:79:1a:fc:0e:46:30:64:b8:18:ef:46:
         ae:20:a9:be:0a:d6
-----BEGIN CERTIFICATE-----
MIIGDzCCBHegAwIBAgIUdsQy9tKrHe53LccOk95nRk4yB8cwDQYJKoZIhvcNAQEL
BQAwTTELMAkGA1UEBhMCWFkxJjAkBgNVBAoMHVB5dGhvbiBTb2Z0d2FyZSBGb3Vu
ZGF0aW9uIENBMRYwFAYDVQQDDA1vdXItY2Etc2VydmVyMB4XDTIwMDcyODE2MDM1
NloXDTMwMDYwNjE2MDM1NlowYjELMAkGA1UEBhMCWFkxFzAVBgNVBAcMDkNhc3Rs
ZSBBbnRocmF4MSMwIQYDVQQKDBpQeXRob24gU29mdHdhcmUgRm91bmRhdGlvbjEV
MBMGA1UEAwwMZmFrZWhvc3RuYW1lMIIBojANBgkqhkiG9w0BAQEFAAOCAY8AMIIB
igKCAYEAs/JZ1Vacram5eHj9BsRgWGGS3x/pvsYjjQEnO9StwjvpIlxuBatMpexi
ZOp4PdJacvwBvjbgDX0Xd9w6Tc0x7xbclfCGi/HdK8V62auLqQetqdIPfR+tL9lW
96wqDHkFCFz3kovLsHFNFzTsWjgA0BKGvfs+KROb49YM4kjIceH0pkS4QbPOIXKv
E+cKdqDZNQtMWbrXjj/3CsyWhFt9TvzEk1RpGuKTo3fZ592HUlLZCfA5Sz1hr+OC
gIeQ+4MxzcMvX2+MThjFa/T7b1tg8BX7+2X+5Y5yLPT8nRKc7CsWIgsMT9Ckcxi6
5mmsshSddVdaMdMQNpQNgK1TJnmYWP4Lxo3hqGM/YUr9ZiruYs7aC7APBO9GAWYt
wVyKUg6hXPRuhIvmvlmRhtlDSFCB72CtqsmG0oQw0M6YkfDT+DcQS5kfKpyR2hxz
RN9XPy2a3n2OoYg+xx7gnrh0gH49PiiZ5i2LVjBTeqi8FN7SwuFjJKVA2h9HxaUT
Nv4PC7l7AgMBAAGjggHQMIIBzDAXBgNVHREEEDAOggxmYWtlaG9zdG5hbWUwDgYD
VR0PAQH/BAQDAgWgMB0GA1UdJQQWMBQGCCsGAQUFBwMBBggrBgEFBQcDAjAMBgNV
HRMBAf8EAjAAMB0GA1UdDgQWBBRwRO9Mpta/eP/xw93pS9QmR2Q4BjCBiQYDVR0j
BIGBMH+AFF5Xoq8HUzX2oV0z49SGxguPN5VUoVGkTzBNMQswCQYDVQQGEwJYWTEm
MCQGA1UECgwdUHl0aG9uIFNvZnR3YXJlIEZvdW5kYXRpb24gQ0ExFjAUBgNVBAMM
DW91ci1jYS1zZXJ2ZXKCFHbEMvbSqx3udy3HDpPeZ0ZOMgfFMIGDBggrBgEFBQcB
AQR3MHUwPAYIKwYBBQUHMAKGMGh0dHA6Ly90ZXN0Y2EucHl0aG9udGVzdC5uZXQv
dGVzdGNhL3B5Y2FjZXJ0LmNlcjA1BggrBgEFBQcwAYYpaHR0cDovL3Rlc3RjYS5w
eXRob250ZXN0Lm5ldC90ZXN0Y2Evb2NzcC8wQwYDVR0fBDwwOjA4oDagNIYyaHR0
cDovL3Rlc3RjYS5weXRob250ZXN0Lm5ldC90ZXN0Y2EvcmV2b2NhdGlvbi5jcmww
DQYJKoZIhvcNAQELBQADggGBAIWg2KddyyW+WQYzGrt2vlkXP1DjUFr12QEAkVMk
Ya1JKSeI/jPOvK0GnVeWFTiXA7LHYU+I/AmUYmhC+z4kUKfEvIYd8Z37E6os8qN4
CmcGQV5xDYt/O5I1wDddHywUOPf5dwxGvEx/zCCaHLTh8lKa8hI/r9IIp7cdb4UV
9RaYOj4kPI4Laf/VNDlCi/hLR9ZqM3X+ahRucIfmV+JPM0e0i1h6NwBJCTmCMGc0
GkANhbj/1kOuNrfvWJKsWykDjdmT5y6fet9nPV4BPTrJ878wPziq5X5UFciaYKHF
hbSIB3hSJUZQnbxsqJ2t3kOrno82VXtc7ZhqYB4kEpAixPxhgGo1YL+g02x0BIVd
v3+RwDOyKvmPk4KHm/LXTeuaCKzJ3JVPw3LBVbbnF8LC9Cog86zfPXegCreoli3M
OhhaUW+ccksTf7UxjlguldAkGA8VzK3c4yt9QtwPsORld+oOfMHYUW3BjeCV4I9s
7B15GvwORjBkuBjvRq4gqb4K1g==
-----END CERTIFICATE-----
