Certificate:
    Data:
        Version: 3 (0x2)
        Serial Number:
            76:c4:32:f6:d2:ab:1d:ee:77:2d:c7:0e:93:de:67:46:4e:32:07:c5
        Signature Algorithm: sha256WithRSAEncryption
        Issuer: C=XY, O=Python Software Foundation CA, CN=our-ca-server
        Validity
            Not Before: Jul 28 16:03:55 2020 GMT
            Not After : Jul 26 16:03:55 2030 GMT
        Subject: C=XY, O=Python Software Foundation CA, CN=our-ca-server
        Subject Public Key Info:
            Public Key Algorithm: rsaEncryption
                RSA Public-Key: (3072 bit)
                Modulus:
                    00:c7:af:41:93:1a:1e:f8:4c:d4:67:a4:52:f4:10:
                    9a:b5:28:8c:a2:24:74:02:70:cc:6b:3c:95:a2:15:
                    be:51:67:be:bf:5a:9a:54:80:c3:3f:e5:6e:ff:51:
                    ea:45:40:97:64:09:20:c8:2f:8f:50:15:cc:d1:d6:
                    7e:5c:ff:ed:80:3a:a2:00:3c:bc:7c:69:7a:f0:ef:
                    77:c4:24:5b:62:37:62:d1:03:b9:49:c0:42:87:23:
                    1e:69:df:50:62:17:be:76:5f:da:74:c3:3f:01:50:
                    0f:17:96:ab:73:8c:27:da:1a:e3:95:c1:31:bb:6e:
                    86:3b:9b:a3:9c:07:2c:c6:7b:2a:69:22:9c:d5:e5:
                    1a:c3:9f:7b:99:59:75:84:6c:b2:67:37:be:6b:0c:
                    e5:ac:58:2d:bc:7e:dd:a9:d9:3c:13:2e:81:43:65:
                    af:16:8a:99:c2:7f:b3:1b:44:95:65:1f:3b:e2:f7:
                    52:29:f6:e3:ec:bf:37:a5:20:e4:15:63:22:8d:21:
                    14:36:17:58:23:a7:13:b3:37:29:70:56:8c:6d:9c:
                    18:1d:29:35:db:43:e7:72:1a:cb:ce:c9:c0:df:0d:
                    54:71:2f:bf:b2:31:69:ed:e2:2a:7b:26:e2:d8:b0:
                    21:6f:7b:d2:6f:5f:d7:13:fd:a2:d9:eb:0c:b0:cf:
                    44:d0:f1:23:87:58:01:32:cf:70:40:2f:78:7c:40:
                    25:8d:9d:95:a3:93:4f:25:e9:e5:d5:d5:e1:af:1e:
                    4e:50:93:32:59:e6:6d:f4:4c:26:f6:d4:8f:45:06:
                    b2:7e:34:c7:f2:81:e8:b6:73:2c:0a:c2:ae:d7:29:
                    f7:ba:42:32:a4:ca:c7:c0:5c:9f:be:9e:52:b6:44:
                    bb:7d:78:75:13:81:06:05:47:d2:bd:2c:c4:7e:7a:
                    84:12:56:c0:66:c6:a0:80:83:24:c2:dd:03:b7:94:
                    96:9a:71:c8:0b:89:42:5d:5d:b5:34:a5:81:7b:0f:
                    f8:60:56:29:58:c5:7b:13:e4:a1
                Exponent: 65537 (0x10001)
        X509v3 extensions:
            X509v3 Subject Key Identifier: 
                5E:57:A2:AF:07:53:35:F6:A1:5D:33:E3:D4:86:C6:0B:8F:37:95:54
            X509v3 Authority Key Identifier: 
                keyid:5E:57:A2:AF:07:53:35:F6:A1:5D:33:E3:D4:86:C6:0B:8F:37:95:54

            X509v3 Basic Constraints: 
                CA:TRUE
    Signature Algorithm: sha256WithRSAEncryption
         c1:89:91:a4:6e:4c:d6:57:e3:6a:94:db:b2:a0:85:43:0b:94:
         79:5c:5e:9e:e7:03:a0:2d:0f:b9:a8:fd:00:1b:c8:b2:e8:d4:
         26:8b:09:bd:67:5d:f0:f9:6e:e2:60:3b:03:71:12:f3:0a:72:
         66:36:33:a4:22:2a:5e:c0:b1:b4:c9:25:3c:24:7a:47:7d:a9:
         18:64:b6:4f:f8:2d:82:7b:91:d1:d0:f3:05:81:75:a0:92:df:
         b3:08:c7:2d:3d:02:e0:41:81:48:18:15:aa:19:de:0e:be:51:
         55:63:68:00:3a:c8:55:49:d8:36:a9:0b:41:6e:5e:c8:db:4a:
         ff:96:fc:d6:cf:dc:61:ab:6a:14:2a:56:59:05:ca:75:ae:7f:
         3c:ca:88:fb:aa:d8:fe:eb:8e:13:77:d2:c3:64:94:90:b8:03:
         cb:d5:15:25:ac:ef:a0:87:95:50:f7:48:24:3c:30:79:f3:17:
         5d:35:f1:fe:b4:08:04:66:90:87:c1:85:dc:c9:bd:c1:e3:05:
         72:cb:e0:46:76:8d:a8:ee:1f:c5:4b:56:44:c8:73:a0:01:56:
         90:4e:c0:70:86:d2:1a:b5:60:76:97:93:12:fc:ec:10:ec:73:
         6f:e0:6c:48:a5:ed:84:8c:f8:c1:50:c0:1d:b2:9b:5e:dc:09:
         ff:e0:67:10:bb:10:db:26:98:8a:31:56:37:93:ac:67:b5:6f:
         87:29:46:d5:86:46:99:cd:f6:f4:e8:34:9b:27:d0:7d:d2:1e:
         54:7c:6b:1a:b8:b2:9c:f2:1f:c9:a9:87:50:79:6b:c7:74:84:
         07:c9:aa:14:e6:62:9c:56:34:c2:10:68:03:e4:b2:84:63:0b:
         34:2d:3b:53:1b:7e:3f:2c:c6:96:98:b9:2f:01:44:f2:b2:fd:
         f5:2b:2c:8f:7d:d8:85:ed:79:6e:fd:a2:2f:7d:bd:db:ab:c6:
         65:db:9b:08:9a:73:75:39:b6:3d:d8:9d:8a:f9:20:c6:b5:55:
         29:12:17:b3:f6:ef
-----BEGIN CERTIFICATE-----
MIIEeDCCAuCgAwIBAgIUdsQy9tKrHe53LccOk95nRk4yB8UwDQYJKoZIhvcNAQEL
BQAwTTELMAkGA1UEBhMCWFkxJjAkBgNVBAoMHVB5dGhvbiBTb2Z0d2FyZSBGb3Vu
ZGF0aW9uIENBMRYwFAYDVQQDDA1vdXItY2Etc2VydmVyMB4XDTIwMDcyODE2MDM1
NVoXDTMwMDcyNjE2MDM1NVowTTELMAkGA1UEBhMCWFkxJjAkBgNVBAoMHVB5dGhv
biBTb2Z0d2FyZSBGb3VuZGF0aW9uIENBMRYwFAYDVQQDDA1vdXItY2Etc2VydmVy
MIIBojANBgkqhkiG9w0BAQEFAAOCAY8AMIIBigKCAYEAx69Bkxoe+EzUZ6RS9BCa
tSiMoiR0AnDMazyVohW+UWe+v1qaVIDDP+Vu/1HqRUCXZAkgyC+PUBXM0dZ+XP/t
gDqiADy8fGl68O93xCRbYjdi0QO5ScBChyMead9QYhe+dl/adMM/AVAPF5arc4wn
2hrjlcExu26GO5ujnAcsxnsqaSKc1eUaw597mVl1hGyyZze+awzlrFgtvH7dqdk8
Ey6BQ2WvFoqZwn+zG0SVZR874vdSKfbj7L83pSDkFWMijSEUNhdYI6cTszcpcFaM
bZwYHSk120PnchrLzsnA3w1UcS+/sjFp7eIqeybi2LAhb3vSb1/XE/2i2esMsM9E
0PEjh1gBMs9wQC94fEAljZ2Vo5NPJenl1dXhrx5OUJMyWeZt9Ewm9tSPRQayfjTH
8oHotnMsCsKu1yn3ukIypMrHwFyfvp5StkS7fXh1E4EGBUfSvSzEfnqEElbAZsag
gIMkwt0Dt5SWmnHIC4lCXV21NKWBew/4YFYpWMV7E+ShAgMBAAGjUDBOMB0GA1Ud
DgQWBBReV6KvB1M19qFdM+PUhsYLjzeVVDAfBgNVHSMEGDAWgBReV6KvB1M19qFd
M+PUhsYLjzeVVDAMBgNVHRMEBTADAQH/MA0GCSqGSIb3DQEBCwUAA4IBgQDBiZGk
bkzWV+NqlNuyoIVDC5R5XF6e5wOgLQ+5qP0AG8iy6NQmiwm9Z13w+W7iYDsDcRLz
CnJmNjOkIipewLG0ySU8JHpHfakYZLZP+C2Ce5HR0PMFgXWgkt+zCMctPQLgQYFI
GBWqGd4OvlFVY2gAOshVSdg2qQtBbl7I20r/lvzWz9xhq2oUKlZZBcp1rn88yoj7
qtj+644Td9LDZJSQuAPL1RUlrO+gh5VQ90gkPDB58xddNfH+tAgEZpCHwYXcyb3B
4wVyy+BGdo2o7h/FS1ZEyHOgAVaQTsBwhtIatWB2l5MS/OwQ7HNv4GxIpe2EjPjB
UMAdspte3An/4GcQuxDbJpiKMVY3k6xntW+HKUbVhkaZzfb06DSbJ9B90h5UfGsa
uLKc8h/JqYdQeWvHdIQHyaoU5mKcVjTCEGgD5LKEYws0LTtTG34/LMaWmLkvAUTy
sv31KyyPfdiF7Xlu/aIvfb3bq8Zl25sImnN1ObY92J2K+SDGtVUpEhez9u8=
-----END CERTIFICATE-----
